target datalayout = "e-m:e-p270:32:32-p271:32:32-p272:64:64-i64:64-i128:128-f80:128-n8:16:32:64-S128"
target triple = "x86_64-unknown-linux-gnu"

%"class.icu_75::UObject" = type { ptr }
%"class.icu_75::SpoofImpl" = type <{ %"class.icu_75::UObject", %"class.icu_75::IcuCApiHelper", i32, ptr, ptr, ptr, i32, [4 x i8] }>
%"class.icu_75::IcuCApiHelper" = type { i32 }

; Function Attrs: mustprogress nounwind uwtable
define linkonce_odr noundef ptr @_ZNK6icu_7510UnicodeSet6toUSetEv(ptr noundef nonnull align 8 dereferenceable(200) %this) #1 comdat align 2 {
entry:
  %this.addr = alloca ptr, align 8
  store ptr %this, ptr %this.addr, align 8
  %this1 = load ptr, ptr %this.addr, align 8
  ret ptr %this1
}

; Function Attrs: mustprogress uwtable
define ptr @uspoof_getAllowedUnicodeSet_75(ptr noundef %sc, ptr noundef %status) #0 {
entry:
  %retval = alloca ptr, align 8
  %sc.addr = alloca ptr, align 8
  %status.addr = alloca ptr, align 8
  %This = alloca ptr, align 8
  store ptr %sc, ptr %sc.addr, align 8
  store ptr %status, ptr %status.addr, align 8
  %0 = load ptr, ptr %sc.addr, align 8
  %1 = load ptr, ptr %status.addr, align 8
  %call = call noundef ptr @_ZN6icu_759SpoofImpl12validateThisEPK13USpoofCheckerR10UErrorCode(ptr noundef %0, ptr noundef nonnull align 4 dereferenceable(4) %1)
  store ptr %call, ptr %This, align 8
  %2 = load ptr, ptr %This, align 8
  %cmp = icmp eq ptr %2, null
  br i1 %cmp, label %if.then, label %if.end

if.then:                                          ; preds = %entry
  store ptr null, ptr %retval, align 8
  br label %return

if.end:                                           ; preds = %entry
  %3 = load ptr, ptr %This, align 8
  %fAllowedCharsSet = getelementptr inbounds %"class.icu_75::SpoofImpl", ptr %3, i32 0, i32 4
  %4 = load ptr, ptr %fAllowedCharsSet, align 8
  store ptr %4, ptr %retval, align 8
  br label %return

return:                                           ; preds = %if.end, %if.then
  %5 = load ptr, ptr %retval, align 8
  ret ptr %5
}

; Function Attrs: mustprogress uwtable
define ptr @uspoof_getAllowedChars_75(ptr noundef %sc, ptr noundef %status) #0 {
entry:
  %sc.addr = alloca ptr, align 8
  %status.addr = alloca ptr, align 8
  %result = alloca ptr, align 8
  store ptr %sc, ptr %sc.addr, align 8
  store ptr %status, ptr %status.addr, align 8
  %0 = load ptr, ptr %sc.addr, align 8
  %1 = load ptr, ptr %status.addr, align 8
  %call = call ptr @uspoof_getAllowedUnicodeSet_75(ptr noundef %0, ptr noundef %1)
  store ptr %call, ptr %result, align 8
  %2 = load ptr, ptr %result, align 8
  %call1 = call noundef ptr @_ZNK6icu_7510UnicodeSet6toUSetEv(ptr noundef nonnull align 8 dereferenceable(200) %2)
  ret ptr %call1
}