; Function Attrs: mustprogress uwtable
define ptr @uspoof_getAllowedChars_75(ptr noundef %sc, ptr noundef nonnull %status) local_unnamed_addr #0 {
entry:
  %call.i = tail call noundef ptr @_ZN6icu_759SpoofImpl12validateThisEPK13USpoofCheckerR10UErrorCode(ptr noundef %sc, ptr noundef nonnull align 4 dereferenceable(4) %status)
  %cmp.i = icmp eq ptr %call.i, null
  br i1 %cmp.i, label %uspoof_getAllowedUnicodeSet_75.exit, label %if.end.i

if.end.i:                                         ; preds = %entry
  %fAllowedCharsSet.i = getelementptr inbounds i8, ptr %call.i, i64 24
  %0 = load ptr, ptr %fAllowedCharsSet.i, align 8
  br label %uspoof_getAllowedUnicodeSet_75.exit

uspoof_getAllowedUnicodeSet_75.exit:              ; preds = %entry, %if.end.i
  %retval.0.i = phi ptr [ %0, %if.end.i ], [ null, %entry ]
  ret ptr %retval.0.i
}